; Function Attrs: mustprogress uwtable
define internal noundef zeroext i1 @_ZN32pxrInternal_v0_24__pxrReserved__12_GLOBAL__N_120Js_PolymorphicWriterIN12_GLOBAL__N_110_WriterFixIN3pxr9rapidjson12PrettyWriterINS5_19BasicOStreamWrapperISoEENS5_4UTF8IcEESA_NS5_12CrtAllocatorELj0EEEEEE5Int64El(ptr noundef nonnull align 8 dereferenceable(80) %0, i64 noundef %1) unnamed_addr #3 align 2 {
  %3 = alloca [21 x i8], align 16
  %4 = getelementptr inbounds nuw i8, ptr %0, i64 8
  tail call void @_ZN3pxr9rapidjson12PrettyWriterINS0_19BasicOStreamWrapperISoEENS0_4UTF8IcEES5_NS0_12CrtAllocatorELj0EE12PrettyPrefixENS0_4TypeE(ptr noundef nonnull align 8 dereferenceable(72) %4, i32 noundef 6)
  call void @llvm.lifetime.start.p0(i64 21, ptr nonnull %3)
  %5 = icmp slt i64 %1, 0
  br i1 %5, label %6, label %_ZN3pxr9rapidjson8internal6i64toaElPc.exit.i.i

6:                                                ; preds = %2
  %7 = getelementptr inbounds nuw i8, ptr %3, i64 1
  store i8 45, ptr %3, align 16
  %8 = sub i64 0, %1
  br label %_ZN3pxr9rapidjson8internal6i64toaElPc.exit.i.i

_ZN3pxr9rapidjson8internal6i64toaElPc.exit.i.i:   ; preds = %6, %2
  %.05.i.i.i = phi ptr [ %7, %6 ], [ %3, %2 ]
  %.0.i.i.i = phi i64 [ %8, %6 ], [ %1, %2 ]
  %9 = call noundef ptr @_ZN3pxr9rapidjson8internal6u64toaEmPc(i64 noundef %.0.i.i.i, ptr noundef nonnull %.05.i.i.i)
  %.not6.i.i = icmp eq ptr %3, %9
  br i1 %.not6.i.i, label %_ZN3pxr9rapidjson6WriterINS0_19BasicOStreamWrapperISoEENS0_4UTF8IcEES5_NS0_12CrtAllocatorELj0EE10WriteInt64El.exit.i, label %.lr.ph.i.i

.lr.ph.i.i:                                       ; preds = %_ZN3pxr9rapidjson8internal6i64toaElPc.exit.i.i, %.lr.ph.i.i
  %.07.i.i = phi ptr [ %14, %.lr.ph.i.i ], [ %3, %_ZN3pxr9rapidjson8internal6i64toaElPc.exit.i.i ]
  %10 = load ptr, ptr %4, align 8
  %11 = load i8, ptr %.07.i.i, align 1
  %12 = load ptr, ptr %10, align 8
  %13 = call noundef nonnull align 8 dereferenceable(8) ptr @_ZNSo3putEc(ptr noundef nonnull align 8 dereferenceable(8) %12, i8 noundef signext %11)
  %14 = getelementptr inbounds nuw i8, ptr %.07.i.i, i64 1
  %.not.i.i = icmp eq ptr %14, %9
  br i1 %.not.i.i, label %_ZN3pxr9rapidjson6WriterINS0_19BasicOStreamWrapperISoEENS0_4UTF8IcEES5_NS0_12CrtAllocatorELj0EE10WriteInt64El.exit.i, label %.lr.ph.i.i, !llvm.loop !21

_ZN3pxr9rapidjson6WriterINS0_19BasicOStreamWrapperISoEENS0_4UTF8IcEES5_NS0_12CrtAllocatorELj0EE10WriteInt64El.exit.i: ; preds = %.lr.ph.i.i, %_ZN3pxr9rapidjson8internal6i64toaElPc.exit.i.i
  call void @llvm.lifetime.end.p0(i64 21, ptr nonnull %3)
  %15 = getelementptr inbounds nuw i8, ptr %0, i64 40
  %16 = load ptr, ptr %15, align 8
  %17 = getelementptr inbounds nuw i8, ptr %0, i64 32
  %18 = load ptr, ptr %17, align 8
  %19 = icmp eq ptr %16, %18
  br i1 %19, label %20, label %_ZN3pxr9rapidjson12PrettyWriterINS0_19BasicOStreamWrapperISoEENS0_4UTF8IcEES5_NS0_12CrtAllocatorELj0EE5Int64El.exit

20:                                               ; preds = %_ZN3pxr9rapidjson6WriterINS0_19BasicOStreamWrapperISoEENS0_4UTF8IcEES5_NS0_12CrtAllocatorELj0EE10WriteInt64El.exit.i
  %21 = load ptr, ptr %4, align 8
  %22 = load ptr, ptr %21, align 8
  %23 = call noundef nonnull align 8 dereferenceable(8) ptr @_ZNSo5flushEv(ptr noundef nonnull align 8 dereferenceable(8) %22)
  br label %_ZN3pxr9rapidjson12PrettyWriterINS0_19BasicOStreamWrapperISoEENS0_4UTF8IcEES5_NS0_12CrtAllocatorELj0EE5Int64El.exit

_ZN3pxr9rapidjson12PrettyWriterINS0_19BasicOStreamWrapperISoEENS0_4UTF8IcEES5_NS0_12CrtAllocatorELj0EE5Int64El.exit: ; preds = %_ZN3pxr9rapidjson6WriterINS0_19BasicOStreamWrapperISoEENS0_4UTF8IcEES5_NS0_12CrtAllocatorELj0EE10WriteInt64El.exit.i, %20
  ret i1 true
}